target datalayout = "e-m:e-p270:32:32-p271:32:32-p272:64:64-i64:64-i128:128-f80:128-n8:16:32:64-S128"
target triple = "x86_64-pc-linux-gnu"

%struct.rb_process_status = type { i32, i32, i32 }

; Function Attrs: nounwind sspstrong uwtable
define dso_local i32 @rb_fork_async_signal_safe(ptr noundef %0, ptr noundef %1, ptr noundef %2, i64 noundef %3, ptr noundef %4, i64 noundef %5) #0 {
  %7 = alloca ptr, align 8
  %8 = alloca ptr, align 8
  %9 = alloca ptr, align 8
  %10 = alloca i64, align 8
  %11 = alloca ptr, align 8
  %12 = alloca i64, align 8
  %13 = alloca %struct.rb_process_status, align 4
  %14 = alloca i32, align 4
  store ptr %0, ptr %7, align 8, !tbaa !60
  store ptr %1, ptr %8, align 8, !tbaa !62
  store ptr %2, ptr %9, align 8, !tbaa !62
  store i64 %3, ptr %10, align 8, !tbaa !35
  store ptr %4, ptr %11, align 8, !tbaa !64
  store i64 %5, ptr %12, align 8, !tbaa !35
  call void @llvm.lifetime.start.p0(i64 12, ptr %13) #27
  call void @llvm.lifetime.start.p0(i64 4, ptr %14) #27
  %15 = load ptr, ptr %8, align 8, !tbaa !62
  %16 = load ptr, ptr %9, align 8, !tbaa !62
  %17 = load i64, ptr %10, align 8, !tbaa !35
  %18 = load ptr, ptr %11, align 8, !tbaa !64
  %19 = load i64, ptr %12, align 8, !tbaa !35
  %20 = call i32 @fork_check_err(ptr noundef %13, ptr noundef %15, ptr noundef %16, i64 noundef %17, ptr noundef %18, i64 noundef %19, ptr noundef null)
  store i32 %20, ptr %14, align 4, !tbaa !34
  %21 = load ptr, ptr %7, align 8, !tbaa !60
  %22 = icmp ne ptr %21, null
  br i1 %22, label %23, label %27

23:                                               ; preds = %6
  %24 = getelementptr inbounds nuw %struct.rb_process_status, ptr %13, i32 0, i32 1
  %25 = load i32, ptr %24, align 4, !tbaa !40
  %26 = load ptr, ptr %7, align 8, !tbaa !60
  store i32 %25, ptr %26, align 4, !tbaa !34
  br label %27

27:                                               ; preds = %23, %6
  %28 = load i32, ptr %14, align 4, !tbaa !34
  call void @llvm.lifetime.end.p0(i64 4, ptr %14) #27
  call void @llvm.lifetime.end.p0(i64 12, ptr %13) #27
  ret i32 %28
}