; Function Attrs: nounwind sspstrong uwtable
define dso_local range(i32 -1, -2147483648) i32 @rb_fork_async_signal_safe(ptr noundef writeonly captures(address_is_null) %0, ptr noundef readonly captures(none) %1, ptr noundef %2, i64 noundef %3, ptr noundef %4, i64 noundef %5) local_unnamed_addr #1 {
  %7 = alloca %struct.rb_process_status, align 4
  call void @llvm.lifetime.start.p0(i64 12, ptr nonnull %7) #27
  %8 = call fastcc i32 @fork_check_err(ptr noundef nonnull %7, ptr noundef %1, ptr noundef %2, i64 noundef %3, ptr noundef %4, i64 noundef %5, ptr noundef null)
  %.not = icmp eq ptr %0, null
  br i1 %.not, label %12, label %9

9:                                                ; preds = %6
  %10 = getelementptr inbounds nuw i8, ptr %7, i64 4
  %11 = load i32, ptr %10, align 4, !tbaa !51
  store i32 %11, ptr %0, align 4, !tbaa !60
  br label %12

12:                                               ; preds = %9, %6
  call void @llvm.lifetime.end.p0(i64 12, ptr nonnull %7) #27
  ret i32 %8
}